target datalayout = "e-m:e-p270:32:32-p271:32:32-p272:64:64-i64:64-i128:128-f80:128-n8:16:32:64-S128"
target triple = "x86_64-unknown-linux-gnu"

%struct.PCIDevice = type { %struct.DeviceState, i8, i8, ptr, ptr, ptr, ptr, ptr, i32, %struct.PCIReqIDCache, [64 x i8], [7 x %struct.PCIIORegion], %struct.AddressSpace, %struct.MemoryRegion, %struct.MemoryRegion, ptr, ptr, [3 x ptr], i8, i8, i32, i8, i32, ptr, ptr, ptr, ptr, ptr, ptr, %struct.MemoryRegion, %struct.MemoryRegion, %struct.MemoryRegion, ptr, i8, i32, i8, %struct.PCIExpressDevice, ptr, ptr, i32, i8, %struct.MemoryRegion, i32, ptr, ptr, ptr, ptr, ptr, i32 }
%struct.DeviceState = type { %struct.Object, ptr, ptr, i8, i8, i64, ptr, i32, i8, ptr, %struct.NamedGPIOListHead, %struct.NamedClockListHead, %struct.BusStateHead, i32, i32, i32, %struct.ResettableState, ptr, %struct.MemReentrancyGuard }
%struct.Object = type { ptr, ptr, ptr, i32, ptr }
%struct.NamedGPIOListHead = type { ptr }
%struct.NamedClockListHead = type { ptr }
%struct.BusStateHead = type { ptr }
%struct.ResettableState = type { i32, i8, i8 }
%struct.MemReentrancyGuard = type { i8 }
%struct.PCIReqIDCache = type { ptr, i32 }
%struct.PCIIORegion = type { i64, i64, i8, ptr, ptr }
%struct.AddressSpace = type { %struct.rcu_head, ptr, ptr, ptr, i32, i32, ptr, %union.anon, %union.anon.0 }
%struct.rcu_head = type { ptr, ptr }
%union.anon = type { %struct.QTailQLink }
%struct.QTailQLink = type { ptr, ptr }
%union.anon.0 = type { %struct.QTailQLink }
%struct.PCIExpressDevice = type { i8, i8, i8, i16, %struct.PCIEAERLog, i16, i16, i16, %struct.PCIESriovPF, %struct.PCIESriovVF }
%struct.PCIEAERLog = type { i16, i16, ptr }
%struct.PCIESriovPF = type { i16, [7 x i8], ptr, ptr }
%struct.PCIESriovVF = type { ptr, i16 }
%struct.MemoryRegion = type { %struct.Object, i8, i8, i8, i8, i8, i8, i8, i8, i8, i8, ptr, ptr, ptr, ptr, ptr, ptr, i32, i128, i64, ptr, i64, i8, i8, i8, i8, i8, ptr, i64, i32, %union.anon.1, %union.anon.2, %union.anon.3, ptr, i32, ptr, ptr, i8 }
%union.anon.1 = type { %struct.QTailQLink }
%union.anon.2 = type { %struct.QTailQLink }
%union.anon.3 = type { %struct.QTailQLink }

@.str.1 = private unnamed_addr constant [22 x i8] c"../qemu/hw/pci/msix.c\00", align 1
@xen_allowed = external global i8, align 1
@.str.14 = private unnamed_addr constant [58 x i8] c"addr + size <= dev->msix_entries_nr * PCI_MSIX_ENTRY_SIZE\00", align 1
@__PRETTY_FUNCTION__.msix_table_mmio_write = private unnamed_addr constant [67 x i8] c"void msix_table_mmio_write(void *, hwaddr, uint64_t, unsigned int)\00", align 1

; Function Attrs: nounwind sspstrong uwtable
define internal i32 @ldl_he_p(ptr noundef %ptr) #0 {
entry:
  %ptr.addr = alloca ptr, align 8
  %r = alloca i32, align 4
  store ptr %ptr, ptr %ptr.addr, align 8
  %0 = load ptr, ptr %ptr.addr, align 8
  call void @llvm.memcpy.p0.p0.i64(ptr align 4 %r, ptr align 1 %0, i64 4, i1 false)
  %1 = load i32, ptr %r, align 4
  ret i32 %1
}

; Function Attrs: nounwind sspstrong uwtable
define internal i32 @ldl_le_p(ptr noundef %ptr) #0 {
entry:
  %ptr.addr = alloca ptr, align 8
  store ptr %ptr, ptr %ptr.addr, align 8
  %0 = load ptr, ptr %ptr.addr, align 8
  %call = call i32 @ldl_he_p(ptr noundef %0)
  ret i32 %call
}

; Function Attrs: nounwind sspstrong uwtable
define internal void @stl_he_p(ptr noundef %ptr, i32 noundef %v) #0 {
entry:
  %ptr.addr = alloca ptr, align 8
  %v.addr = alloca i32, align 4
  store ptr %ptr, ptr %ptr.addr, align 8
  store i32 %v, ptr %v.addr, align 4
  %0 = load ptr, ptr %ptr.addr, align 8
  call void @llvm.memcpy.p0.p0.i64(ptr align 1 %0, ptr align 4 %v.addr, i64 4, i1 false)
  ret void
}

; Function Attrs: nounwind sspstrong uwtable
define internal i32 @pci_get_long(ptr noundef %config) #0 {
entry:
  %config.addr = alloca ptr, align 8
  store ptr %config, ptr %config.addr, align 8
  %0 = load ptr, ptr %config.addr, align 8
  %call = call i32 @ldl_le_p(ptr noundef %0)
  ret i32 %call
}

; Function Attrs: nounwind sspstrong uwtable
define internal void @stl_le_p(ptr noundef %ptr, i32 noundef %v) #0 {
entry:
  %ptr.addr = alloca ptr, align 8
  %v.addr = alloca i32, align 4
  store ptr %ptr, ptr %ptr.addr, align 8
  store i32 %v, ptr %v.addr, align 4
  %0 = load ptr, ptr %ptr.addr, align 8
  %1 = load i32, ptr %v.addr, align 4
  call void @stl_he_p(ptr noundef %0, i32 noundef %1)
  ret void
}

; Function Attrs: nounwind sspstrong uwtable
define internal zeroext i1 @msix_vector_masked(ptr noundef %dev, i32 noundef %vector, i1 noundef zeroext %fmask) #0 {
entry:
  %retval = alloca i1, align 1
  %dev.addr = alloca ptr, align 8
  %vector.addr = alloca i32, align 4
  %fmask.addr = alloca i8, align 1
  %offset = alloca i32, align 4
  %data = alloca ptr, align 8
  store ptr %dev, ptr %dev.addr, align 8
  store i32 %vector, ptr %vector.addr, align 4
  %frombool = zext i1 %fmask to i8
  store i8 %frombool, ptr %fmask.addr, align 1
  %0 = load i32, ptr %vector.addr, align 4
  %mul = mul i32 %0, 16
  store i32 %mul, ptr %offset, align 4
  %1 = load ptr, ptr %dev.addr, align 8
  %msix_table = getelementptr inbounds %struct.PCIDevice, ptr %1, i32 0, i32 23
  %2 = load ptr, ptr %msix_table, align 8
  %3 = load i32, ptr %offset, align 4
  %add = add i32 %3, 8
  %idxprom = zext i32 %add to i64
  %arrayidx = getelementptr i8, ptr %2, i64 %idxprom
  store ptr %arrayidx, ptr %data, align 8
  %4 = load i8, ptr @xen_allowed, align 1
  %tobool = trunc i8 %4 to i1
  br i1 %tobool, label %land.lhs.true, label %if.end

land.lhs.true:                                    ; preds = %entry
  %5 = load ptr, ptr %data, align 8
  %call = call i32 @pci_get_long(ptr noundef %5)
  %call1 = call i32 @xen_is_pirq_msi(i32 noundef %call)
  %tobool2 = icmp ne i32 %call1, 0
  br i1 %tobool2, label %if.then, label %if.end

if.then:                                          ; preds = %land.lhs.true
  store i1 false, ptr %retval, align 1
  br label %return

if.end:                                           ; preds = %land.lhs.true, %entry
  %6 = load i8, ptr %fmask.addr, align 1
  %tobool3 = trunc i8 %6 to i1
  br i1 %tobool3, label %lor.end, label %lor.rhs

lor.rhs:                                          ; preds = %if.end
  %7 = load ptr, ptr %dev.addr, align 8
  %msix_table4 = getelementptr inbounds %struct.PCIDevice, ptr %7, i32 0, i32 23
  %8 = load ptr, ptr %msix_table4, align 8
  %9 = load i32, ptr %offset, align 4
  %add5 = add i32 %9, 12
  %idxprom6 = zext i32 %add5 to i64
  %arrayidx7 = getelementptr i8, ptr %8, i64 %idxprom6
  %10 = load i8, ptr %arrayidx7, align 1
  %conv = zext i8 %10 to i32
  %and = and i32 %conv, 1
  %tobool8 = icmp ne i32 %and, 0
  br label %lor.end

lor.end:                                          ; preds = %lor.rhs, %if.end
  %11 = phi i1 [ true, %if.end ], [ %tobool8, %lor.rhs ]
  store i1 %11, ptr %retval, align 1
  br label %return

return:                                           ; preds = %lor.end, %if.then
  %12 = load i1, ptr %retval, align 1
  ret i1 %12
}

; Function Attrs: nounwind sspstrong uwtable
define internal void @pci_set_long(ptr noundef %config, i32 noundef %val) #0 {
entry:
  %config.addr = alloca ptr, align 8
  %val.addr = alloca i32, align 4
  store ptr %config, ptr %config.addr, align 8
  store i32 %val, ptr %val.addr, align 4
  %0 = load ptr, ptr %config.addr, align 8
  %1 = load i32, ptr %val.addr, align 4
  call void @stl_le_p(ptr noundef %0, i32 noundef %1)
  ret void
}

; Function Attrs: nounwind sspstrong uwtable
define dso_local zeroext i1 @msix_is_masked(ptr noundef %dev, i32 noundef %vector) #0 {
entry:
  %dev.addr = alloca ptr, align 8
  %vector.addr = alloca i32, align 4
  store ptr %dev, ptr %dev.addr, align 8
  store i32 %vector, ptr %vector.addr, align 4
  %0 = load ptr, ptr %dev.addr, align 8
  %1 = load i32, ptr %vector.addr, align 4
  %2 = load ptr, ptr %dev.addr, align 8
  %msix_function_masked = getelementptr inbounds %struct.PCIDevice, ptr %2, i32 0, i32 33
  %3 = load i8, ptr %msix_function_masked, align 8
  %tobool = trunc i8 %3 to i1
  %call = call zeroext i1 @msix_vector_masked(ptr noundef %0, i32 noundef %1, i1 noundef zeroext %tobool)
  ret i1 %call
}

; Function Attrs: nounwind sspstrong uwtable
define internal void @msix_table_mmio_write(ptr noundef %opaque, i64 noundef %addr, i64 noundef %val, i32 noundef %size) #0 {
entry:
  %opaque.addr = alloca ptr, align 8
  %addr.addr = alloca i64, align 8
  %val.addr = alloca i64, align 8
  %size.addr = alloca i32, align 4
  %dev = alloca ptr, align 8
  %vector = alloca i32, align 4
  %was_masked = alloca i8, align 1
  store ptr %opaque, ptr %opaque.addr, align 8
  store i64 %addr, ptr %addr.addr, align 8
  store i64 %val, ptr %val.addr, align 8
  store i32 %size, ptr %size.addr, align 4
  %0 = load ptr, ptr %opaque.addr, align 8
  store ptr %0, ptr %dev, align 8
  %1 = load i64, ptr %addr.addr, align 8
  %div = udiv i64 %1, 16
  %conv = trunc i64 %div to i32
  store i32 %conv, ptr %vector, align 4
  %2 = load i64, ptr %addr.addr, align 8
  %3 = load i32, ptr %size.addr, align 4
  %conv1 = zext i32 %3 to i64
  %add = add i64 %2, %conv1
  %4 = load ptr, ptr %dev, align 8
  %msix_entries_nr = getelementptr inbounds %struct.PCIDevice, ptr %4, i32 0, i32 22
  %5 = load i32, ptr %msix_entries_nr, align 4
  %mul = mul i32 %5, 16
  %conv2 = sext i32 %mul to i64
  %cmp = icmp ule i64 %add, %conv2
  br i1 %cmp, label %if.then, label %if.else

if.then:                                          ; preds = %entry
  br label %if.end

if.else:                                          ; preds = %entry
  call void @__assert_fail(ptr noundef @.str.14, ptr noundef @.str.1, i32 noundef 227, ptr noundef @__PRETTY_FUNCTION__.msix_table_mmio_write) #8
  unreachable

if.end:                                           ; preds = %if.then
  %6 = load ptr, ptr %dev, align 8
  %7 = load i32, ptr %vector, align 4
  %call = call zeroext i1 @msix_is_masked(ptr noundef %6, i32 noundef %7)
  %frombool = zext i1 %call to i8
  store i8 %frombool, ptr %was_masked, align 1
  %8 = load ptr, ptr %dev, align 8
  %msix_table = getelementptr inbounds %struct.PCIDevice, ptr %8, i32 0, i32 23
  %9 = load ptr, ptr %msix_table, align 8
  %10 = load i64, ptr %addr.addr, align 8
  %add.ptr = getelementptr i8, ptr %9, i64 %10
  %11 = load i64, ptr %val.addr, align 8
  %conv4 = trunc i64 %11 to i32
  call void @pci_set_long(ptr noundef %add.ptr, i32 noundef %conv4)
  %12 = load ptr, ptr %dev, align 8
  %13 = load i32, ptr %vector, align 4
  %14 = load i8, ptr %was_masked, align 1
  %tobool = trunc i8 %14 to i1
  call void @msix_handle_mask_update(ptr noundef %12, i32 noundef %13, i1 noundef zeroext %tobool)
  ret void
}